target datalayout = "e-m:e-p270:32:32-p271:32:32-p272:64:64-i64:64-i128:128-f80:128-n8:16:32:64-S128"
target triple = "x86_64-pc-linux-gnu"

%struct.H5T_t = type { %struct.H5O_shared_t, ptr, %struct.H5O_loc_t, %struct.H5G_name_t, ptr }
%struct.H5O_shared_t = type { i32, ptr, i32, %union.anon }
%union.anon = type { %struct.H5O_mesg_loc_t }
%struct.H5O_mesg_loc_t = type { i32, i64 }
%struct.H5O_loc_t = type { ptr, i64, i8 }
%struct.H5G_name_t = type { ptr, ptr, i32 }
%struct.H5T_shared_t = type { i64, i32, i32, i64, i32, i8, ptr, ptr, %union.anon.0 }
%union.anon.0 = type { %struct.H5T_array_t }
%struct.H5T_array_t = type { i64, i32, [32 x i64] }

@.str.2 = private unnamed_addr constant [97 x i8] c"generated/home/dtcxzyw/WorkSpace/Projects/compilers/llvm-opt-benchmark/bench/hdf5/hdf5/src/H5T.c\00", align 1
@H5E_DATATYPE_g = external global i64, align 8
@H5E_CANTINIT_g = external global i64, align 8
@H5E_BADTYPE_g = external global i64, align 8
@.str.305 = private unnamed_addr constant [23 x i8] c"invalid datatype state\00", align 1
@.str.323 = private unnamed_addr constant [21 x i8] c"not a named datatype\00", align 1
@__func__.H5T_nameof = private unnamed_addr constant [11 x i8] c"H5T_nameof\00", align 1

; Function Attrs: nounwind uwtable
define ptr @H5T_nameof(ptr noundef %0) #0 {
  %2 = alloca ptr, align 8
  %3 = alloca ptr, align 8
  %4 = alloca i8, align 1
  store ptr %0, ptr %2, align 8
  store ptr null, ptr %3, align 8
  store i8 0, ptr %4, align 1
  %5 = load ptr, ptr %2, align 8
  %6 = getelementptr inbounds %struct.H5T_t, ptr %5, i32 0, i32 1
  %7 = load ptr, ptr %6, align 8
  %8 = getelementptr inbounds %struct.H5T_shared_t, ptr %7, i32 0, i32 1
  %9 = load i32, ptr %8, align 8
  switch i32 %9, label %28 [
    i32 0, label %10
    i32 1, label %10
    i32 2, label %10
    i32 3, label %25
    i32 4, label %25
  ]

10:                                               ; preds = %1, %1, %1
  br label %11

11:                                               ; preds = %10
  br label %12

12:                                               ; preds = %11
  br label %13

13:                                               ; preds = %12
  %14 = load i64, ptr @H5E_DATATYPE_g, align 8
  %15 = load i64, ptr @H5E_CANTINIT_g, align 8
  %16 = call i32 (ptr, ptr, i32, i64, i64, ptr, ...) @H5E_printf_stack(ptr noundef @.str.2, ptr noundef @__func__.H5T_nameof, i32 noundef 5995, i64 noundef %14, i64 noundef %15, ptr noundef @.str.323)
  br label %17

17:                                               ; preds = %13
  store i8 1, ptr %4, align 1
  %18 = load i8, ptr %4, align 1
  %19 = trunc i8 %18 to i1
  %20 = zext i1 %19 to i8
  store i8 %20, ptr %4, align 1
  br label %21

21:                                               ; preds = %17
  br label %22

22:                                               ; preds = %21
  store ptr null, ptr %3, align 8
  br label %44

23:                                               ; No predecessors!
  br label %24

24:                                               ; preds = %23
  br label %25

25:                                               ; preds = %24, %1, %1
  %26 = load ptr, ptr %2, align 8
  %27 = getelementptr inbounds %struct.H5T_t, ptr %26, i32 0, i32 3
  store ptr %27, ptr %3, align 8
  br label %43

28:                                               ; preds = %1
  br label %29

29:                                               ; preds = %28
  br label %30

30:                                               ; preds = %29
  br label %31

31:                                               ; preds = %30
  %32 = load i64, ptr @H5E_DATATYPE_g, align 8
  %33 = load i64, ptr @H5E_BADTYPE_g, align 8
  %34 = call i32 (ptr, ptr, i32, i64, i64, ptr, ...) @H5E_printf_stack(ptr noundef @.str.2, ptr noundef @__func__.H5T_nameof, i32 noundef 6001, i64 noundef %32, i64 noundef %33, ptr noundef @.str.305)
  br label %35

35:                                               ; preds = %31
  store i8 1, ptr %4, align 1
  %36 = load i8, ptr %4, align 1
  %37 = trunc i8 %36 to i1
  %38 = zext i1 %37 to i8
  store i8 %38, ptr %4, align 1
  br label %39

39:                                               ; preds = %35
  br label %40

40:                                               ; preds = %39
  store ptr null, ptr %3, align 8
  br label %44

41:                                               ; No predecessors!
  br label %42

42:                                               ; preds = %41
  br label %43

43:                                               ; preds = %42, %25
  br label %44

44:                                               ; preds = %43, %40, %22
  %45 = load ptr, ptr %3, align 8
  ret ptr %45
}