; Function Attrs: nounwind uwtable
define ptr @H5T_nameof(ptr noundef readonly %0) local_unnamed_addr #0 {
  %2 = getelementptr inbounds i8, ptr %0, i64 40
  %3 = load ptr, ptr %2, align 8
  %4 = getelementptr inbounds i8, ptr %3, i64 8
  %5 = load i32, ptr %4, align 8
  switch i32 %5, label %12 [
    i32 0, label %6
    i32 1, label %6
    i32 2, label %6
    i32 3, label %10
    i32 4, label %10
  ]

6:                                                ; preds = %1, %1, %1
  %7 = load i64, ptr @H5E_DATATYPE_g, align 8
  %8 = load i64, ptr @H5E_CANTINIT_g, align 8
  %9 = tail call i32 (ptr, ptr, i32, i64, i64, ptr, ...) @H5E_printf_stack(ptr noundef nonnull @.str.2, ptr noundef nonnull @__func__.H5T_nameof, i32 noundef 5995, i64 noundef %7, i64 noundef %8, ptr noundef nonnull @.str.323) #17
  br label %16

10:                                               ; preds = %1, %1
  %11 = getelementptr inbounds i8, ptr %0, i64 72
  br label %16

12:                                               ; preds = %1
  %13 = load i64, ptr @H5E_DATATYPE_g, align 8
  %14 = load i64, ptr @H5E_BADTYPE_g, align 8
  %15 = tail call i32 (ptr, ptr, i32, i64, i64, ptr, ...) @H5E_printf_stack(ptr noundef nonnull @.str.2, ptr noundef nonnull @__func__.H5T_nameof, i32 noundef 6001, i64 noundef %13, i64 noundef %14, ptr noundef nonnull @.str.305) #17
  br label %16

16:                                               ; preds = %10, %12, %6
  %.0 = phi ptr [ null, %12 ], [ %11, %10 ], [ null, %6 ]
  ret ptr %.0
}